target datalayout = "e-m:e-p270:32:32-p271:32:32-p272:64:64-i64:64-i128:128-f80:128-n8:16:32:64-S128"
target triple = "x86_64-pc-linux-gnu"

%"class.llvm::cl::opt" = type { %"class.llvm::cl::Option", %"class.llvm::cl::opt_storage", %"class.llvm::cl::parser", %"class.std::function" }
%"class.llvm::cl::Option" = type { ptr, i16, i16, i16, i16, %"class.llvm::StringRef", %"class.llvm::StringRef", %"class.llvm::StringRef", %"class.llvm::SmallVector", %"class.llvm::SmallPtrSet" }
%"class.llvm::StringRef" = type { ptr, i64 }
%"class.llvm::SmallVector" = type { %"class.llvm::SmallVectorImpl", %"struct.llvm::SmallVectorStorage" }
%"class.llvm::SmallVectorImpl" = type { %"class.llvm::SmallVectorTemplateBase" }
%"class.llvm::SmallVectorTemplateBase" = type { %"class.llvm::SmallVectorTemplateCommon" }
%"class.llvm::SmallVectorTemplateCommon" = type { %"class.llvm::SmallVectorBase" }
%"class.llvm::SmallVectorBase" = type { ptr, i32, i32 }
%"struct.llvm::SmallVectorStorage" = type { [8 x i8] }
%"class.llvm::SmallPtrSet" = type { %"class.llvm::SmallPtrSetImpl.base", [1 x ptr] }
%"class.llvm::SmallPtrSetImpl.base" = type { %"class.llvm::SmallPtrSetImplBase.base" }
%"class.llvm::SmallPtrSetImplBase.base" = type <{ ptr, ptr, i32, i32, i32 }>
%"class.llvm::cl::opt_storage" = type { i8, [7 x i8], %"struct.llvm::cl::OptionValue" }
%"struct.llvm::cl::OptionValue" = type { %"struct.llvm::cl::OptionValueBase.base", [6 x i8] }
%"struct.llvm::cl::OptionValueBase.base" = type { %"class.llvm::cl::OptionValueCopy.base" }
%"class.llvm::cl::OptionValueCopy.base" = type <{ %"struct.llvm::cl::GenericOptionValue", i8, i8 }>
%"struct.llvm::cl::GenericOptionValue" = type { ptr }
%"class.llvm::cl::parser" = type { %"class.llvm::cl::basic_parser" }
%"class.llvm::cl::basic_parser" = type { %"class.llvm::cl::basic_parser_impl" }
%"class.llvm::cl::basic_parser_impl" = type { ptr }
%"class.std::function" = type { %"class.std::_Function_base", ptr }
%"class.std::_Function_base" = type { %"union.std::_Any_data", ptr }
%"union.std::_Any_data" = type { %"union.std::_Nocopy_types" }
%"union.std::_Nocopy_types" = type { { i64, i64 } }
%"class.llvm::MCFixup" = type { ptr, i32, i32, %"class.llvm::SMLoc" }
%"class.llvm::SMLoc" = type { ptr }
%"class.llvm::MCEncodedFragment" = type { %"class.llvm::MCFragment.base", i8, ptr }
%"class.llvm::MCFragment.base" = type <{ ptr, ptr, i64, i32, i8, i8 }>
%"class.llvm::SmallVector.165" = type { %"class.llvm::SmallVectorImpl.101", %"struct.llvm::SmallVectorStorage.166" }
%"class.llvm::SmallVectorImpl.101" = type { %"class.llvm::SmallVectorTemplateBase.102" }
%"class.llvm::SmallVectorTemplateBase.102" = type { %"class.llvm::SmallVectorTemplateCommon.103" }
%"class.llvm::SmallVectorTemplateCommon.103" = type { %"class.llvm::SmallVectorBase.104" }
%"class.llvm::SmallVectorBase.104" = type { ptr, i64, i64 }
%"struct.llvm::SmallVectorStorage.166" = type { [8 x i8] }
%"class.llvm::SmallVectorImpl.168" = type { %"class.llvm::SmallVectorTemplateBase.169" }
%"class.llvm::SmallVectorTemplateBase.169" = type { %"class.llvm::SmallVectorTemplateCommon.170" }
%"class.llvm::SmallVectorTemplateCommon.170" = type { %"class.llvm::SmallVectorBase" }
%"class.llvm::MCExpr" = type <{ i8, i32, [3 x i8], %"class.llvm::SMLoc" }>
%"struct.std::pair.181" = type { i8, i8 }
%"class.llvm::MCLEBFragment" = type { %"class.llvm::MCEncodedFragmentWithFixups.183", i8, ptr }
%"class.llvm::MCEncodedFragmentWithFixups.183" = type { %"class.llvm::MCEncodedFragment", %"class.llvm::SmallVector.165", %"class.llvm::SmallVector.184" }
%"class.llvm::SmallVector.184" = type { %"class.llvm::SmallVectorImpl.168" }

@_ZL12ULEB128Reloc = internal global %"class.llvm::cl::opt" zeroinitializer, align 8

; Function Attrs: mustprogress nounwind uwtable
define linkonce_odr hidden void @_ZN4llvm5SMLocC2Ev(ptr noundef nonnull align 8 dereferenceable(8) %0) unnamed_addr #1 comdat align 2 {
  %2 = alloca ptr, align 8
  store ptr %0, ptr %2, align 8
  %3 = load ptr, ptr %2, align 8
  %4 = getelementptr inbounds nuw %"class.llvm::SMLoc", ptr %3, i32 0, i32 0
  store ptr null, ptr %4, align 8
  ret void
}

; Function Attrs: mustprogress nounwind uwtable
define linkonce_odr hidden void @_ZN4llvm7MCFixupC2Ev(ptr noundef nonnull align 8 dereferenceable(24) %0) unnamed_addr #1 comdat align 2 {
  %2 = alloca ptr, align 8
  store ptr %0, ptr %2, align 8
  %3 = load ptr, ptr %2, align 8
  %4 = getelementptr inbounds nuw %"class.llvm::MCFixup", ptr %3, i32 0, i32 0
  store ptr null, ptr %4, align 8
  %5 = getelementptr inbounds nuw %"class.llvm::MCFixup", ptr %3, i32 0, i32 1
  store i32 0, ptr %5, align 8
  %6 = getelementptr inbounds nuw %"class.llvm::MCFixup", ptr %3, i32 0, i32 2
  store i32 0, ptr %6, align 4
  %7 = getelementptr inbounds nuw %"class.llvm::MCFixup", ptr %3, i32 0, i32 3
  call void @_ZN4llvm5SMLocC2Ev(ptr noundef nonnull align 8 dereferenceable(8) %7) #2
  ret void
}

; Function Attrs: mustprogress nounwind uwtable
define linkonce_odr hidden noundef zeroext i1 @_ZNK4llvm2cl11opt_storageIbLb0ELb0EE8getValueEv(ptr noundef nonnull align 8 dereferenceable(24) %0) #1 comdat align 2 {
  %2 = alloca ptr, align 8
  store ptr %0, ptr %2, align 8
  %3 = load ptr, ptr %2, align 8
  %4 = getelementptr inbounds nuw %"class.llvm::cl::opt_storage", ptr %3, i32 0, i32 0
  %5 = load i8, ptr %4, align 8
  %6 = trunc i8 %5 to i1
  ret i1 %6
}

; Function Attrs: mustprogress nounwind uwtable
define linkonce_odr hidden void @_ZNSt4pairIbbEC2IbbTnNSt9enable_ifIXaaclsr5_PCCPE22_MoveConstructiblePairIT_T0_EEclsr5_PCCPE30_ImplicitlyMoveConvertiblePairIS3_S4_EEEbE4typeELb1EEEOS3_OS4_(ptr noundef nonnull align 1 dereferenceable(2) %0, ptr noundef nonnull align 1 dereferenceable(1) %1, ptr noundef nonnull align 1 dereferenceable(1) %2) unnamed_addr #1 comdat align 2 {
  %4 = alloca ptr, align 8
  %5 = alloca ptr, align 8
  %6 = alloca ptr, align 8
  store ptr %0, ptr %4, align 8
  store ptr %1, ptr %5, align 8
  store ptr %2, ptr %6, align 8
  %7 = load ptr, ptr %4, align 8
  %8 = getelementptr inbounds nuw %"struct.std::pair.181", ptr %7, i32 0, i32 0
  %9 = load ptr, ptr %5, align 8
  %10 = load i8, ptr %9, align 1
  %11 = trunc i8 %10 to i1
  %12 = zext i1 %11 to i8
  store i8 %12, ptr %8, align 1
  %13 = getelementptr inbounds nuw %"struct.std::pair.181", ptr %7, i32 0, i32 1
  %14 = load ptr, ptr %6, align 8
  %15 = load i8, ptr %14, align 1
  %16 = trunc i8 %15 to i1
  %17 = zext i1 %16 to i8
  store i8 %17, ptr %13, align 1
  ret void
}

; Function Attrs: mustprogress nounwind uwtable
define linkonce_odr hidden void @_ZN4llvm7MCFixup6createEjPKNS_6MCExprENS_11MCFixupKindENS_5SMLocE(ptr dead_on_unwind noalias writable sret(%"class.llvm::MCFixup") align 8 %0, i32 noundef %1, ptr noundef %2, i32 noundef %3, ptr %4) #1 comdat align 2 {
  %6 = alloca %"class.llvm::SMLoc", align 8
  %7 = alloca i32, align 4
  %8 = alloca ptr, align 8
  %9 = alloca i32, align 4
  %10 = getelementptr inbounds nuw %"class.llvm::SMLoc", ptr %6, i32 0, i32 0
  store ptr %4, ptr %10, align 8
  store i32 %1, ptr %7, align 4
  store ptr %2, ptr %8, align 8
  store i32 %3, ptr %9, align 4
  call void @_ZN4llvm7MCFixupC2Ev(ptr noundef nonnull align 8 dereferenceable(24) %0) #2
  %11 = load ptr, ptr %8, align 8
  %12 = getelementptr inbounds nuw %"class.llvm::MCFixup", ptr %0, i32 0, i32 0
  store ptr %11, ptr %12, align 8
  %13 = load i32, ptr %7, align 4
  %14 = getelementptr inbounds nuw %"class.llvm::MCFixup", ptr %0, i32 0, i32 1
  store i32 %13, ptr %14, align 8
  %15 = load i32, ptr %9, align 4
  %16 = getelementptr inbounds nuw %"class.llvm::MCFixup", ptr %0, i32 0, i32 2
  store i32 %15, ptr %16, align 4
  %17 = getelementptr inbounds nuw %"class.llvm::MCFixup", ptr %0, i32 0, i32 3
  call void @llvm.memcpy.p0.p0.i64(ptr align 8 %17, ptr align 8 %6, i64 8, i1 false)
  ret void
}

; Function Attrs: mustprogress nounwind uwtable
define linkonce_odr hidden ptr @_ZNK4llvm6MCExpr6getLocEv(ptr noundef nonnull align 8 dereferenceable(16) %0) #1 comdat align 2 {
  %2 = alloca %"class.llvm::SMLoc", align 8
  %3 = alloca ptr, align 8
  store ptr %0, ptr %3, align 8
  %4 = load ptr, ptr %3, align 8
  %5 = getelementptr inbounds nuw %"class.llvm::MCExpr", ptr %4, i32 0, i32 3
  call void @llvm.memcpy.p0.p0.i64(ptr align 8 %2, ptr align 8 %5, i64 8, i1 false)
  %6 = getelementptr inbounds nuw %"class.llvm::SMLoc", ptr %2, i32 0, i32 0
  %7 = load ptr, ptr %6, align 8
  ret ptr %7
}

; Function Attrs: mustprogress nounwind uwtable
define linkonce_odr hidden noundef nonnull align 8 dereferenceable(16) ptr @_ZN4llvm27MCEncodedFragmentWithFixupsILj8ELj0EE9getFixupsEv(ptr noundef nonnull align 8 dereferenceable(88) %0) #1 comdat align 2 {
  %2 = alloca ptr, align 8
  store ptr %0, ptr %2, align 8
  %3 = load ptr, ptr %2, align 8
  %4 = getelementptr inbounds nuw %"class.llvm::MCEncodedFragmentWithFixups.183", ptr %3, i32 0, i32 2
  ret ptr %4
}

; Function Attrs: mustprogress nounwind uwtable
define linkonce_odr hidden noundef zeroext i1 @_ZNK4llvm2cl11opt_storageIbLb0ELb0EEcvbEv(ptr noundef nonnull align 8 dereferenceable(24) %0) #1 comdat align 2 {
  %2 = alloca ptr, align 8
  store ptr %0, ptr %2, align 8
  %3 = load ptr, ptr %2, align 8
  %4 = call noundef zeroext i1 @_ZNK4llvm2cl11opt_storageIbLb0ELb0EE8getValueEv(ptr noundef nonnull align 8 dereferenceable(24) %3)
  ret i1 %4
}

; Function Attrs: mustprogress nounwind uwtable
define linkonce_odr hidden noundef nonnull align 8 dereferenceable(16) ptr @_ZNK4llvm13MCLEBFragment8getValueEv(ptr noundef nonnull align 8 dereferenceable(104) %0) #1 comdat align 2 {
  %2 = alloca ptr, align 8
  store ptr %0, ptr %2, align 8
  %3 = load ptr, ptr %2, align 8
  %4 = getelementptr inbounds nuw %"class.llvm::MCLEBFragment", ptr %3, i32 0, i32 2
  %5 = load ptr, ptr %4, align 8
  ret ptr %5
}

; Function Attrs: mustprogress nounwind uwtable
define linkonce_odr i16 @_ZSt9make_pairIbbESt4pairINSt25__strip_reference_wrapperINSt5decayIT_E4typeEE6__typeENS1_INS2_IT0_E4typeEE6__typeEEOS3_OS8_(ptr noundef nonnull align 1 dereferenceable(1) %0, ptr noundef nonnull align 1 dereferenceable(1) %1) #1 comdat {
  %3 = alloca %"struct.std::pair.181", align 1
  %4 = alloca ptr, align 8
  %5 = alloca ptr, align 8
  store ptr %0, ptr %4, align 8
  store ptr %1, ptr %5, align 8
  %6 = load ptr, ptr %4, align 8
  %7 = load ptr, ptr %5, align 8
  call void @_ZNSt4pairIbbEC2IbbTnNSt9enable_ifIXaaclsr5_PCCPE22_MoveConstructiblePairIT_T0_EEclsr5_PCCPE30_ImplicitlyMoveConvertiblePairIS3_S4_EEEbE4typeELb1EEEOS3_OS4_(ptr noundef nonnull align 1 dereferenceable(2) %3, ptr noundef nonnull align 1 dereferenceable(1) %6, ptr noundef nonnull align 1 dereferenceable(1) %7)
  %8 = load i16, ptr %3, align 1
  ret i16 %8
}

; Function Attrs: mustprogress nounwind uwtable
define linkonce_odr hidden noundef zeroext i1 @_ZNK4llvm13MCLEBFragment8isSignedEv(ptr noundef nonnull align 8 dereferenceable(104) %0) #1 comdat align 2 {
  %2 = alloca ptr, align 8
  store ptr %0, ptr %2, align 8
  %3 = load ptr, ptr %2, align 8
  %4 = getelementptr inbounds nuw %"class.llvm::MCLEBFragment", ptr %3, i32 0, i32 1
  %5 = load i8, ptr %4, align 8
  %6 = trunc i8 %5 to i1
  ret i1 %6
}

; Function Attrs: mustprogress nounwind uwtable
define dso_local i16 @_ZNK4llvm15RISCVAsmBackend11relaxLEB128ERKNS_11MCAssemblerERNS_13MCLEBFragmentERl(ptr noundef nonnull align 8 dereferenceable(40) %0, ptr noundef nonnull align 8 dereferenceable(372) %1, ptr noundef nonnull align 8 dereferenceable(104) %2, ptr noundef nonnull align 8 dereferenceable(8) %3) unnamed_addr #1 align 2 {
  %5 = alloca %"struct.std::pair.181", align 1
  %6 = alloca ptr, align 8
  %7 = alloca ptr, align 8
  %8 = alloca ptr, align 8
  %9 = alloca ptr, align 8
  %10 = alloca i8, align 1
  %11 = alloca i8, align 1
  %12 = alloca ptr, align 8
  %13 = alloca %"class.llvm::MCFixup", align 8
  %14 = alloca %"class.llvm::SMLoc", align 8
  %15 = alloca i8, align 1
  %16 = alloca i8, align 1
  store ptr %0, ptr %6, align 8
  store ptr %1, ptr %7, align 8
  store ptr %2, ptr %8, align 8
  store ptr %3, ptr %9, align 8
  %17 = load ptr, ptr %8, align 8
  %18 = call noundef zeroext i1 @_ZNK4llvm13MCLEBFragment8isSignedEv(ptr noundef nonnull align 8 dereferenceable(104) %17)
  br i1 %18, label %19, label %21

19:                                               ; preds = %4
  store i8 0, ptr %10, align 1
  store i8 0, ptr %11, align 1
  %20 = call i16 @_ZSt9make_pairIbbESt4pairINSt25__strip_reference_wrapperINSt5decayIT_E4typeEE6__typeENS1_INS2_IT0_E4typeEE6__typeEEOS3_OS8_(ptr noundef nonnull align 1 dereferenceable(1) %10, ptr noundef nonnull align 1 dereferenceable(1) %11)
  store i16 %20, ptr %5, align 1
  br label %41

21:                                               ; preds = %4
  %22 = load ptr, ptr %8, align 8
  %23 = call noundef nonnull align 8 dereferenceable(16) ptr @_ZNK4llvm13MCLEBFragment8getValueEv(ptr noundef nonnull align 8 dereferenceable(104) %22)
  store ptr %23, ptr %12, align 8
  %24 = call noundef zeroext i1 @_ZNK4llvm2cl11opt_storageIbLb0ELb0EEcvbEv(ptr noundef nonnull align 8 dereferenceable(24) getelementptr inbounds (i8, ptr @_ZL12ULEB128Reloc, i64 128))
  br i1 %24, label %25, label %34

25:                                               ; preds = %21
  %26 = load ptr, ptr %8, align 8
  %27 = call noundef nonnull align 8 dereferenceable(16) ptr @_ZN4llvm27MCEncodedFragmentWithFixupsILj8ELj0EE9getFixupsEv(ptr noundef nonnull align 8 dereferenceable(88) %26)
  %28 = load ptr, ptr %12, align 8
  %29 = load ptr, ptr %12, align 8
  %30 = call ptr @_ZNK4llvm6MCExpr6getLocEv(ptr noundef nonnull align 8 dereferenceable(16) %29)
  %31 = getelementptr inbounds nuw %"class.llvm::SMLoc", ptr %14, i32 0, i32 0
  store ptr %30, ptr %31, align 8
  %32 = getelementptr inbounds nuw %"class.llvm::SMLoc", ptr %14, i32 0, i32 0
  %33 = load ptr, ptr %32, align 8
  call void @_ZN4llvm7MCFixup6createEjPKNS_6MCExprENS_11MCFixupKindENS_5SMLocE(ptr dead_on_unwind writable sret(%"class.llvm::MCFixup") align 8 %13, i32 noundef 0, ptr noundef %28, i32 noundef 5, ptr %33)
  call void @_ZN4llvm23SmallVectorTemplateBaseINS_7MCFixupELb1EE9push_backERKS1_(ptr noundef nonnull align 8 dereferenceable(16) %27, ptr noundef nonnull align 8 dereferenceable(24) %13)
  br label %34

34:                                               ; preds = %25, %21
  %35 = load ptr, ptr %12, align 8
  %36 = load ptr, ptr %9, align 8
  %37 = load ptr, ptr %7, align 8
  %38 = call noundef zeroext i1 @_ZNK4llvm6MCExpr21evaluateKnownAbsoluteERlRKNS_11MCAssemblerE(ptr noundef nonnull align 8 dereferenceable(16) %35, ptr noundef nonnull align 8 dereferenceable(8) %36, ptr noundef nonnull align 8 dereferenceable(372) %37)
  %39 = zext i1 %38 to i8
  store i8 %39, ptr %15, align 1
  store i8 0, ptr %16, align 1
  %40 = call i16 @_ZSt9make_pairIbbESt4pairINSt25__strip_reference_wrapperINSt5decayIT_E4typeEE6__typeENS1_INS2_IT0_E4typeEE6__typeEEOS3_OS8_(ptr noundef nonnull align 1 dereferenceable(1) %15, ptr noundef nonnull align 1 dereferenceable(1) %16)
  store i16 %40, ptr %5, align 1
  br label %41

41:                                               ; preds = %34, %19
  %42 = load i16, ptr %5, align 1
  ret i16 %42
}