; Function Attrs: mustprogress nounwind uwtable
define dso_local range(i16 0, 2) i16 @_ZNK4llvm15RISCVAsmBackend11relaxLEB128ERKNS_11MCAssemblerERNS_13MCLEBFragmentERl(ptr nocapture nonnull readnone align 8 %0, ptr noundef nonnull align 8 dereferenceable(372) %1, ptr noundef nonnull align 8 dereferenceable(104) %2, ptr noundef nonnull align 8 dereferenceable(8) %3) unnamed_addr #0 align 2 {
  %5 = alloca %"class.llvm::MCFixup", align 8
  %6 = getelementptr inbounds nuw i8, ptr %2, i64 88
  %7 = load i8, ptr %6, align 8
  %8 = trunc i8 %7 to i1
  br i1 %8, label %22, label %9

9:                                                ; preds = %4
  %10 = getelementptr inbounds nuw i8, ptr %2, i64 96
  %11 = load ptr, ptr %10, align 8
  %12 = load i8, ptr getelementptr inbounds (i8, ptr @_ZL12ULEB128Reloc, i64 128), align 8
  %13 = trunc i8 %12 to i1
  br i1 %13, label %14, label %20

14:                                               ; preds = %9
  %15 = getelementptr inbounds nuw i8, ptr %2, i64 72
  %16 = getelementptr inbounds nuw i8, ptr %11, i64 8
  %.sroa.0.0.copyload.i = load ptr, ptr %16, align 8
  store ptr %11, ptr %5, align 8, !alias.scope !38
  %17 = getelementptr inbounds nuw i8, ptr %5, i64 8
  store i32 0, ptr %17, align 8, !alias.scope !38
  %18 = getelementptr inbounds nuw i8, ptr %5, i64 12
  store i32 5, ptr %18, align 4, !alias.scope !38
  %19 = getelementptr inbounds nuw i8, ptr %5, i64 16
  store ptr %.sroa.0.0.copyload.i, ptr %19, align 8, !alias.scope !38
  call void @_ZN4llvm23SmallVectorTemplateBaseINS_7MCFixupELb1EE9push_backERKS1_(ptr noundef nonnull align 8 dereferenceable(16) %15, ptr noundef nonnull align 8 dereferenceable(24) %5)
  br label %20

20:                                               ; preds = %14, %9
  %21 = call noundef zeroext i1 @_ZNK4llvm6MCExpr21evaluateKnownAbsoluteERlRKNS_11MCAssemblerE(ptr noundef nonnull align 8 dereferenceable(16) %11, ptr noundef nonnull align 8 dereferenceable(8) %3, ptr noundef nonnull align 8 dereferenceable(372) %1) #18
  %.sroa.0.0.insert.ext.i11 = zext i1 %21 to i16
  br label %22

22:                                               ; preds = %4, %20
  %.sroa.08.0 = phi i16 [ %.sroa.0.0.insert.ext.i11, %20 ], [ 0, %4 ]
  ret i16 %.sroa.08.0
}